Archive member included because of file (symbol)

/home/justin/Toolchain/gcc-arm-none-eabi-4_7-2013q3/bin/../lib/gcc/arm-none-eabi/4.7.4/../../../../arm-none-eabi/lib/armv7e-m/libc.a(lib_a-memcpy.o)
                              OPRoS_M-built-in.o (memcpy)
/home/justin/Toolchain/gcc-arm-none-eabi-4_7-2013q3/bin/../lib/gcc/arm-none-eabi/4.7.4/../../../../arm-none-eabi/lib/armv7e-m/libc.a(lib_a-memset.o)
                              OPRoS_M-built-in.o (memset)
/home/justin/Toolchain/gcc-arm-none-eabi-4_7-2013q3/bin/../lib/gcc/arm-none-eabi/4.7.4/../../../../arm-none-eabi/lib/armv7e-m/libc.a(lib_a-strcmp.o)
                              OPRoS_M-built-in.o (strcmp)
/home/justin/Toolchain/gcc-arm-none-eabi-4_7-2013q3/bin/../lib/gcc/arm-none-eabi/4.7.4/../../../../arm-none-eabi/lib/armv7e-m/libc.a(lib_a-strcpy.o)
                              App-built-in.o (strcpy)
/home/justin/Toolchain/gcc-arm-none-eabi-4_7-2013q3/bin/../lib/gcc/arm-none-eabi/4.7.4/../../../../arm-none-eabi/lib/armv7e-m/libc.a(lib_a-strlen.o)
                              OPRoS_M-built-in.o (strlen)
/home/justin/Toolchain/gcc-arm-none-eabi-4_7-2013q3/bin/../lib/gcc/arm-none-eabi/4.7.4/armv7e-m/libgcc.a(_arm_addsubdf3.o)
                              Board-built-in.o (__aeabi_dsub)
/home/justin/Toolchain/gcc-arm-none-eabi-4_7-2013q3/bin/../lib/gcc/arm-none-eabi/4.7.4/armv7e-m/libgcc.a(_arm_muldivdf3.o)
                              Board-built-in.o (__aeabi_dmul)
/home/justin/Toolchain/gcc-arm-none-eabi-4_7-2013q3/bin/../lib/gcc/arm-none-eabi/4.7.4/armv7e-m/libgcc.a(_arm_fixdfsi.o)
                              Board-built-in.o (__aeabi_d2iz)

Allocating common symbols
Common symbol       size              file

current_iphdr_src   0x4               Lwip-built-in.o
netif_list          0x4               Lwip-built-in.o
SYSTEM_CONNECTION_SET
                    0xc8              OPRoS_M-built-in.o
intMethod           0x74              App-built-in.o
system_string       0x24              OPRoS_M-built-in.o
RX_Frame_Descriptor
                    0xc               Board-built-in.o
SYSTEM_COMPONENT_CONNECTION_SET
                    0x168             OPRoS_M-built-in.o
lock_tcpip_core     0x4               Lwip-built-in.o
tcp_active_pcbs     0x4               Lwip-built-in.o
udp_pcbs            0x4               Lwip-built-in.o
system_float        0x24              OPRoS_M-built-in.o
current_netif       0x4               Lwip-built-in.o
tcp_ticks           0x4               Lwip-built-in.o
tcp_listen_pcbs     0x4               Lwip-built-in.o
DMARxDescToGet      0x4               Board-built-in.o
current_iphdr_dest  0x4               Lwip-built-in.o
system_double       0x24              OPRoS_M-built-in.o
mutex_io_packet_container
                    0x4               OPRoS_M-built-in.o
system_short        0x24              OPRoS_M-built-in.o
SYSTEM_PORT_CONNECTION_SET
                    0x78              OPRoS_M-built-in.o
DMATxDescToSet      0x4               Board-built-in.o
io_packet_container
                    0xd14             OPRoS_M-built-in.o
tcp_tmp_pcb         0x4               Lwip-built-in.o
component           0x2a0             App-built-in.o
tcp_input_pcb       0x4               Lwip-built-in.o
sem_io_packet_container
                    0x4               OPRoS_M-built-in.o
DMATxDscrTab        0xa0              Board-built-in.o
system_long         0x24              OPRoS_M-built-in.o
current_header      0x4               Lwip-built-in.o
Rx_Buff             0x1dc4            Board-built-in.o
tcp_bound_pcbs      0x4               Lwip-built-in.o
singleton_component
                    0x4               OPRoS_M-built-in.o
Frame_Rx_index      0x4               Board-built-in.o
DMA_RX_FRAME_infos  0x4               Board-built-in.o
DMARxDscrTab        0xa0              Board-built-in.o
tcp_tw_pcbs         0x4               Lwip-built-in.o
system_int          0x24              OPRoS_M-built-in.o
xnetif              0x30              App-built-in.o
netif_default       0x4               Lwip-built-in.o
ram_heap            0x2814            Lwip-built-in.o
testService         0x2c              App-built-in.o
system_void         0x24              OPRoS_M-built-in.o
system_char         0x24              OPRoS_M-built-in.o
Tx_Buff             0x1dc4            Board-built-in.o

Memory Configuration

Name             Origin             Length             Attributes
RAM              0x20000000         0x00020000         xrw
CCMRAM           0x10000000         0x00010000         xrw
FLASH            0x08000000         0x00100000         xr
*default*        0x00000000         0xffffffff

Linker script and memory map

LOAD App-built-in.o
LOAD OPRoS_M-built-in.o
LOAD Board-built-in.o
LOAD FreeRTOS-built-in.o
LOAD Lwip-built-in.o
LOAD /home/justin/Toolchain/gcc-arm-none-eabi-4_7-2013q3/bin/../lib/gcc/arm-none-eabi/4.7.4/../../../../arm-none-eabi/lib/armv7e-m/libc.a
LOAD /home/justin/Toolchain/gcc-arm-none-eabi-4_7-2013q3/bin/../lib/gcc/arm-none-eabi/4.7.4/../../../../arm-none-eabi/lib/armv7e-m/libm.a
LOAD /home/justin/Toolchain/gcc-arm-none-eabi-4_7-2013q3/bin/../lib/gcc/arm-none-eabi/4.7.4/armv7e-m/libgcc.a
START GROUP
LOAD /home/justin/Toolchain/gcc-arm-none-eabi-4_7-2013q3/bin/../lib/gcc/arm-none-eabi/4.7.4/armv7e-m/libgcc.a
LOAD /home/justin/Toolchain/gcc-arm-none-eabi-4_7-2013q3/bin/../lib/gcc/arm-none-eabi/4.7.4/../../../../arm-none-eabi/lib/armv7e-m/libc.a
END GROUP
                0x20020000                _estack = (ORIGIN (RAM) + 0x20000)
                0x00000100                _Minimum_Stack_Size = 0x100
                0x00000001                ASSERT ((ORIGIN (FLASH) == ALIGN (ORIGIN (FLASH), 0x80)), Start of memory region flash not aligned for startup vector table)

.text           0x08000000    0x2e798
                0x08000000                . = ALIGN (0x80)
                0x00000000                _isr_vectorsflash_offs = (. - 0x8000000)
 *(.isr_vector)
 .isr_vector    0x08000000      0x188 Board-built-in.o
                0x08000000                g_pfnVectors
                0x08000188                . = ALIGN (0x4)
 *(.text)
 .text          0x08000188      0x90c App-built-in.o
                0x08000188                fnc_IntMethod
                0x080001d4                onEvent
                0x080001fc                onExecute
                0x0800025c                initService
                0x08000324                initComponent
                0x08000550                parsingSystemData
                0x080008a4                main
                0x080008e4                vApplicationStackOverflowHook
                0x080008fc                LwIP_Init
                0x0800099c                NMI_Handler
                0x080009a8                HardFault_Handler
                0x080009b0                MemManage_Handler
                0x080009b8                BusFault_Handler
                0x080009c0                UsageFault_Handler
                0x080009c8                DebugMon_Handler
                0x080009d4                ETH_IRQHandler
 .text          0x08000a94     0x32f4 OPRoS_M-built-in.o
                0x08000a94                Init_OPRoS_M
                0x08000aec                executeComponent
                0x08000b20                registerDataType
                0x08000b58                getDataTypeByIndex
                0x08000b7c                getDataTypeByName
                0x08000bd8                init_system_datatype
                0x08000db0                deserialize_int
                0x08000ddc                serialize_int
                0x08000e30                deserialize_string
                0x08000eb8                serialize_string
                0x080010c8                init_component_io
                0x080010f8                pushData
                0x080012cc                generateEvent
                0x080017d8                callService
                0x08001ae0                component_io_thread
                0x08001ca8                component_io_process_thread
                0x08001ec8                process_event_thread
                0x08002054                process_service_thread
                0x08002538                process_data_thread
                0x0800271c                parsing_event_argument
                0x08002934                setIoHeader
                0x08002974                setPortHeader
                0x080029c4                parsingIoHeader
                0x08002a70                packingIoHeader
                0x08002bcc                parsingPortHeader
                0x08002d90                packingPortHeader
                0x0800300c                getSystemSerializeID
                0x08003030                getSystemSerializeSIZE
                0x08003054                byte2int_little
                0x080030a4                byte2int_big
                0x080030d0                byte2short
                0x08003108                byte2double
                0x08003120                createNodeConnection
                0x080031fc                findNodeConnectionByComponentName
                0x08003268                getFreeNodeConnectionSocket
                0x080032b4                releaseNodeConnectionSocket
                0x080032f0                createComponentConnection
                0x08003354                findComponentConnectionByName
                0x080033c0                createPortConnection
                0x08003424                getSystemPortConnectionbyIndex
                0x08003450                init_connection_container
                0x080038ac                getFreeIOPacketContainer
                0x0800391c                releaseIOPacketContainer
                0x0800396c                initIOPacketContainer
                0x08003a44                OPRoS_M_thread_new
                0x08003a88                OPRoS_M_thread_delete
                0x08003aa0                OPRoS_M_thread_join
                0x08003ab8                OPRoS_M_semaphore_create_mutex
                0x08003aec                OPRoS_M_semaphore_create_counting
                0x08003b24                OPRoS_M_semaphore_take
                0x08003b4c                OPRoS_M_semaphore_give
                0x08003b74                OPRoS_M_TCP_socket_create
                0x08003b98                OPRoS_M_TCP_socket_set
                0x08003bc4                OPRoS_M_TCP_set_socket_addr
                0x08003c20                OPRoS_M_TCP_socket_bind
                0x08003c58                OPRoS_M_TCP_socket_listen
                0x08003c78                OPRoS_M_TCP_socket_accept
                0x08003cb4                OPRoS_M_TCP_socket_connect
                0x08003cec                OPRoS_M_TCP_socket_close
                0x08003d04                OPRoS_M_TCP_socket_read
                0x08003d2c                OPRoS_M_TCP_socket_write
                0x08003d54                OPRoS_M_malloc
                0x08003d70                OPRoS_M_free
 .text          0x08003d88    0x11fc4 Board-built-in.o
                0x08003d88                initBoard
                0x08003d9c                RCC_Configuration
                0x08003e28                GPIO_Configuration
                0x08003e8c                USART_Configuration
                0x08003f30                print_byte_uart
                0x08003fac                get_byte
                0x08004020                DecToLong
                0x080040a4                printf
                0x0800492c                ETH_BSP_Config
                0x08004c54                SystemInit
                0x08004ce8                SystemCoreClockUpdate
                0x08004fe0                NVIC_PriorityGroupConfig
                0x08005008                NVIC_Init
                0x080050ec                NVIC_SetVectorTable
                0x08005118                NVIC_SystemLPConfig
                0x0800516c                SysTick_CLKSourceConfig
                0x080051b8                ADC_DeInit
                0x080051d8                ADC_Init
                0x08005290                ADC_StructInit
                0x080052dc                ADC_CommonInit
                0x08005338                ADC_CommonStructInit
                0x0800536c                ADC_Cmd
                0x080053a4                ADC_AnalogWatchdogCmd
                0x080053e0                ADC_AnalogWatchdogThresholdsConfig
                0x08005408                ADC_AnalogWatchdogSingleChannelConfig
                0x08005440                ADC_TempSensorVrefintCmd
                0x0800548c                ADC_VBATCmd
                0x080054d8                ADC_RegularChannelConfig
                0x08005694                ADC_SoftwareStartConv
                0x080056b4                ADC_GetSoftwareStartConvStatus
                0x080056ec                ADC_EOCOnEachRegularChannelCmd
                0x08005724                ADC_ContinuousModeCmd
                0x0800575c                ADC_DiscModeChannelCountConfig
                0x080057a8                ADC_DiscModeCmd
                0x080057e0                ADC_GetConversionValue
                0x080057fc                ADC_GetMultiModeConversionValue
                0x08005814                ADC_DMACmd
                0x0800584c                ADC_DMARequestAfterLastTransferCmd
                0x08005884                ADC_MultiModeDMARequestAfterLastTransferCmd
                0x080058d0                ADC_InjectedChannelConfig
                0x08005a14                ADC_InjectedSequencerLengthConfig
                0x08005a60                ADC_SetInjectedOffset
                0x08005a94                ADC_ExternalTrigInjectedConvConfig
                0x08005acc                ADC_ExternalTrigInjectedConvEdgeConfig
                0x08005b04                ADC_SoftwareStartInjectedConv
                0x08005b24                ADC_GetSoftwareStartInjectedConvCmdStatus
                0x08005b5c                ADC_AutoInjectedConvCmd
                0x08005b94                ADC_InjectedDiscModeCmd
                0x08005bcc                ADC_GetInjectedConversionValue
                0x08005c00                ADC_ITConfig
                0x08005c58                ADC_GetFlagStatus
                0x08005c94                ADC_ClearFlag
                0x08005cb4                ADC_GetITStatus
                0x08005d20                ADC_ClearITPendingBit
                0x08005d50                CAN_DeInit
                0x08005da0                CAN_Init
                0x08005f5c                CAN_FilterInit
                0x0800616c                CAN_StructInit
                0x080061d8                CAN_SlaveStartBank
                0x08006264                CAN_DBGFreeze
                0x0800629c                CAN_TTComModeCmd
                0x08006334                CAN_Transmit
                0x08006510                CAN_TransmitStatus
                0x0800661c                CAN_CancelTransmit
                0x0800666c                CAN_Receive
                0x08006814                CAN_FIFORelease
                0x0800684c                CAN_MessagePending
                0x0800689c                CAN_OperatingModeRequest
                0x080069b0                CAN_Sleep
                0x080069f0                CAN_WakeUp
                0x08006a4c                CAN_GetLastErrorCode
                0x08006a74                CAN_GetReceiveErrorCounter
                0x08006a9c                CAN_GetLSBTransmitErrorCounter
                0x08006ac8                CAN_ITConfig
                0x08006b04                CAN_GetFlagStatus
                0x08006bfc                CAN_ClearFlag
                0x08006c78                CAN_GetITStatus
                0x08006e30                CAN_ClearITPendingBit
                0x08006f64                CRC_ResetDR
                0x08006f7c                CRC_CalcCRC
                0x08006fa8                CRC_CalcBlockCRC
                0x08006ffc                CRC_GetCRC
                0x08007014                CRC_SetIDRegister
                0x08007034                CRC_GetIDRegister
                0x0800704c                CRYP_AES_ECB
                0x080074fc                CRYP_AES_CBC
                0x08007ac0                CRYP_AES_CTR
                0x08008008                CRYP_DeInit
                0x08008028                CRYP_Init
                0x08008124                CRYP_StructInit
                0x08008158                CRYP_KeyInit
                0x080081dc                CRYP_KeyStructInit
                0x08008230                CRYP_IVInit
                0x0800827c                CRYP_IVStructInit
                0x080082b0                CRYP_FIFOFlush
                0x080082d4                CRYP_Cmd
                0x08008320                CRYP_DataIn
                0x08008340                CRYP_DataOut
                0x08008358                CRYP_SaveContext
                0x080084bc                CRYP_RestoreContext
                0x0800859c                CRYP_DMACmd
                0x080085f4                CRYP_ITConfig
                0x0800864c                CRYP_GetITStatus
                0x0800868c                CRYP_GetFlagStatus
                0x080086ec                CRYP_DES_ECB
                0x0800884c                CRYP_DES_CBC
                0x080089fc                CRYP_TDES_ECB
                0x08008bcc                CRYP_TDES_CBC
                0x08008e34                DAC_DeInit
                0x08008e54                DAC_Init
                0x08008ec8                DAC_StructInit
                0x08008efc                DAC_Cmd
                0x08008f60                DAC_SoftwareTriggerCmd
                0x08008fcc                DAC_DualSoftwareTriggerCmd
                0x08009018                DAC_WaveGenerationCmd
                0x08009078                DAC_SetChannel1Data
                0x080090b0                DAC_SetChannel2Data
                0x080090e8                DAC_SetDualChannelData
                0x0800914c                DAC_GetDataOutputValue
                0x08009188                DAC_DMACmd
                0x080091ec                DAC_ITConfig
                0x0800924c                DAC_GetFlagStatus
                0x08009290                DAC_ClearFlag
                0x080092b8                DAC_GetITStatus
                0x08009320                DAC_ClearITPendingBit
                0x08009348                DBGMCU_GetREVID
                0x08009364                DBGMCU_GetDEVID
                0x08009384                DBGMCU_Config
                0x080093d8                DBGMCU_APB1PeriphConfig
                0x0800942c                DBGMCU_APB2PeriphConfig
                0x08009480                DCMI_DeInit
                0x080094ec                DCMI_Init
                0x08009580                DCMI_StructInit
                0x080095cc                DCMI_CROPConfig
                0x08009614                DCMI_CROPCmd
                0x08009660                DCMI_SetEmbeddedSynchroCodes
                0x080096a0                DCMI_JPEGCmd
                0x080096ec                DCMI_Cmd
                0x08009738                DCMI_CaptureCmd
                0x08009784                DCMI_ReadData
                0x0800979c                DCMI_ITConfig
                0x080097f4                DCMI_GetFlagStatus
                0x08009870                DCMI_ClearFlag
                0x08009890                DCMI_GetITStatus
                0x080098d8                DCMI_ClearITPendingBit
                0x080098f8                DMA_DeInit
                0x08009b3c                DMA_Init
                0x08009bec                DMA_StructInit
                0x08009c78                DMA_Cmd
                0x08009cb0                DMA_PeriphIncOffsetSizeConfig
                0x08009ce4                DMA_FlowControllerConfig
                0x08009d18                DMA_SetCurrDataCounter
                0x08009d34                DMA_GetCurrDataCounter
                0x08009d50                DMA_DoubleBufferModeConfig
                0x08009d8c                DMA_DoubleBufferModeCmd
                0x08009dc4                DMA_MemoryTargetConfig
                0x08009df0                DMA_GetCurrentMemoryTarget
                0x08009e28                DMA_GetCmdStatus
                0x08009e60                DMA_GetFIFOStatus
                0x08009e88                DMA_GetFlagStatus
                0x08009f0c                DMA_ClearFlag
                0x08009f6c                DMA_ITConfig
                0x08009fe0                DMA_GetITStatus
                0x0800a0a0                DMA_ClearITPendingBit
                0x0800a100                EXTI_DeInit
                0x0800a154                EXTI_Init
                0x0800a28c                EXTI_StructInit
                0x0800a2c0                EXTI_GenerateSWInterrupt
                0x0800a2ec                EXTI_GetFlagStatus
                0x0800a328                EXTI_ClearFlag
                0x0800a348                EXTI_GetITStatus
                0x0800a3a0                EXTI_ClearITPendingBit
                0x0800a3c0                FLASH_SetLatency
                0x0800a3e0                FLASH_PrefetchBufferCmd
                0x0800a42c                FLASH_InstructionCacheCmd
                0x0800a478                FLASH_DataCacheCmd
                0x0800a4c4                FLASH_InstructionCacheReset
                0x0800a4e8                FLASH_DataCacheReset
                0x0800a50c                FLASH_Unlock
                0x0800a548                FLASH_Lock
                0x0800a56c                FLASH_EraseSector
                0x0800a684                FLASH_EraseAllSectors
                0x0800a764                FLASH_ProgramDoubleWord
                0x0800a804                FLASH_ProgramWord
                0x0800a89c                FLASH_ProgramHalfWord
                0x0800a938                FLASH_ProgramByte
                0x0800a9d0                FLASH_OB_Unlock
                0x0800aa10                FLASH_OB_Lock
                0x0800aa34                FLASH_OB_WRPConfig
                0x0800aaa8                FLASH_OB_RDPConfig
                0x0800aadc                FLASH_OB_UserConfig
                0x0800ab40                FLASH_OB_BORConfig
                0x0800ab8c                FLASH_OB_Launch
                0x0800abc8                FLASH_OB_GetUser
                0x0800abe4                FLASH_OB_GetWRP
                0x0800abfc                FLASH_OB_GetRDP
                0x0800ac34                FLASH_OB_GetBOR
                0x0800ac54                FLASH_ITConfig
                0x0800aca8                FLASH_GetFlagStatus
                0x0800ace4                FLASH_ClearFlag
                0x0800ad04                FLASH_GetStatus
                0x0800ad8c                FLASH_WaitForLastOperation
                0x0800adc0                FSMC_NORSRAMDeInit
                0x0800ae1c                FSMC_NORSRAMInit
                0x0800af6c                FSMC_NORSRAMStructInit
                0x0800b074                FSMC_NORSRAMCmd
                0x0800b0c8                FSMC_NANDDeInit
                0x0800b154                FSMC_NANDInit
                0x0800b254                FSMC_NANDStructInit
                0x0800b2f0                FSMC_NANDCmd
                0x0800b38c                FSMC_NANDECCCmd
                0x0800b428                FSMC_GetECC
                0x0800b464                FSMC_PCCARDDeInit
                0x0800b4b4                FSMC_PCCARDInit
                0x0800b588                FSMC_PCCARDStructInit
                0x0800b62c                FSMC_PCCARDCmd
                0x0800b680                FSMC_ITConfig
                0x0800b760                FSMC_GetFlagStatus
                0x0800b7d4                FSMC_ClearFlag
                0x0800b850                FSMC_GetITStatus
                0x0800b8e4                FSMC_ClearITPendingBit
                0x0800b96c                GPIO_DeInit
                0x0800bae4                GPIO_Init
                0x0800bc28                GPIO_StructInit
                0x0800bc64                GPIO_PinLockConfig
                0x0800bca8                GPIO_ReadInputDataBit
                0x0800bce4                GPIO_ReadInputData
                0x0800bd00                GPIO_ReadOutputDataBit
                0x0800bd3c                GPIO_ReadOutputData
                0x0800bd58                GPIO_SetBits
                0x0800bd74                GPIO_ResetBits
                0x0800bd90                GPIO_WriteBit
                0x0800bdc0                GPIO_Write
                0x0800bddc                GPIO_ToggleBits
                0x0800be00                GPIO_PinAFConfig
                0x0800bea8                HASH_DeInit
                0x0800bec8                HASH_Init
                0x0800bf6c                HASH_StructInit
                0x0800bfa0                HASH_Reset
                0x0800bfc4                HASH_SetLastWordValidBitsNbr
                0x0800c008                HASH_DataIn
                0x0800c028                HASH_GetInFIFOWordsNbr
                0x0800c048                HASH_GetDigest
                0x0800c0a0                HASH_StartDigest
                0x0800c0c4                HASH_SaveContext
                0x0800c140                HASH_RestoreContext
                0x0800c1d4                HASH_DMACmd
                0x0800c220                HASH_ITConfig
                0x0800c278                HASH_GetFlagStatus
                0x0800c2d8                HASH_ClearFlag
                0x0800c2fc                HASH_GetITStatus
                0x0800c350                HASH_ClearITPendingBit
                0x0800c378                HASH_MD5
                0x0800c4b8                HMAC_MD5
                0x0800c710                HASH_SHA1
                0x0800c868                HMAC_SHA1
                0x0800cad8                I2C_DeInit
                0x0800cb60                I2C_Init
                0x0800cd0c                I2C_StructInit
                0x0800cd50                I2C_Cmd
                0x0800cd90                I2C_GenerateSTART
                0x0800cdd0                I2C_GenerateSTOP
                0x0800ce10                I2C_Send7bitAddress
                0x0800ce4c                I2C_AcknowledgeConfig
                0x0800ce8c                I2C_OwnAddress2Config
                0x0800ced0                I2C_DualAddressCmd
                0x0800cf10                I2C_GeneralCallCmd
                0x0800cf50                I2C_SoftwareResetCmd
                0x0800cf98                I2C_StretchClockCmd
                0x0800cfd8                I2C_FastModeDutyCycleConfig
                0x0800d018                I2C_NACKPositionConfig
                0x0800d058                I2C_SMBusAlertConfig
                0x0800d098                I2C_ARPCmd
                0x0800d0d8                I2C_SendData
                0x0800d0f8                I2C_ReceiveData
                0x0800d114                I2C_TransmitPEC
                0x0800d154                I2C_PECPositionConfig
                0x0800d194                I2C_CalculatePEC
                0x0800d1d4                I2C_GetPEC
                0x0800d1f8                I2C_DMACmd
                0x0800d238                I2C_DMALastTransferCmd
                0x0800d278                I2C_ReadRegister
                0x0800d2a8                I2C_ITConfig
                0x0800d2f0                I2C_CheckEvent
                0x0800d360                I2C_GetLastEvent
                0x0800d3ac                I2C_GetFlagStatus
                0x0800d424                I2C_ClearFlag
                0x0800d454                I2C_GetITStatus
                0x0800d4b8                I2C_ClearITPendingBit
                0x0800d4e8                IWDG_WriteAccessCmd
                0x0800d508                IWDG_SetPrescaler
                0x0800d528                IWDG_SetReload
                0x0800d548                IWDG_ReloadCounter
                0x0800d560                IWDG_Enable
                0x0800d578                IWDG_GetFlagStatus
                0x0800d5b8                PWR_DeInit
                0x0800d5d8                PWR_BackupAccessCmd
                0x0800d5f8                PWR_PVDLevelConfig
                0x0800d638                PWR_PVDCmd
                0x0800d658                PWR_WakeUpPinCmd
                0x0800d678                PWR_BackupRegulatorCmd
                0x0800d698                PWR_MainRegulatorModeConfig
                0x0800d6e4                PWR_FlashPowerDownCmd
                0x0800d704                PWR_EnterSTOPMode
                0x0800d784                PWR_EnterSTANDBYMode
                0x0800d7d8                PWR_GetFlagStatus
                0x0800d814                PWR_ClearFlag
                0x0800d844                RCC_DeInit
                0x0800d8c8                RCC_HSEConfig
                0x0800d8f8                RCC_WaitForHSEStartUp
                0x0800d95c                RCC_AdjustHSICalibrationValue
                0x0800d9a4                RCC_HSICmd
                0x0800d9c4                RCC_LSEConfig
                0x0800da24                RCC_LSICmd
                0x0800da44                RCC_PLLConfig
                0x0800da8c                RCC_PLLCmd
                0x0800daac                RCC_PLLI2SConfig
                0x0800dadc                RCC_PLLI2SCmd
                0x0800dafc                RCC_ClockSecuritySystemCmd
                0x0800db1c                RCC_MCO1Config
                0x0800db64                RCC_MCO2Config
                0x0800dbac                RCC_SYSCLKConfig
                0x0800dbec                RCC_GetSYSCLKSource
                0x0800dc0c                RCC_HCLKConfig
                0x0800dc4c                RCC_PCLK1Config
                0x0800dc8c                RCC_PCLK2Config
                0x0800dcd0                RCC_GetClocksFreq
                0x0800de9c                RCC_RTCCLKConfig
                0x0800df10                RCC_RTCCLKCmd
                0x0800df30                RCC_BackupResetCmd
                0x0800df50                RCC_I2SCLKConfig
                0x0800df70                RCC_AHB1PeriphClockCmd
                0x0800dfc4                RCC_AHB2PeriphClockCmd
                0x0800e018                RCC_AHB3PeriphClockCmd
                0x0800e06c                RCC_APB1PeriphClockCmd
                0x0800e0c0                RCC_APB2PeriphClockCmd
                0x0800e114                RCC_AHB1PeriphResetCmd
                0x0800e168                RCC_AHB2PeriphResetCmd
                0x0800e1bc                RCC_AHB3PeriphResetCmd
                0x0800e210                RCC_APB1PeriphResetCmd
                0x0800e264                RCC_APB2PeriphResetCmd
                0x0800e2b8                RCC_AHB1PeriphClockLPModeCmd
                0x0800e30c                RCC_AHB2PeriphClockLPModeCmd
                0x0800e360                RCC_AHB3PeriphClockLPModeCmd
                0x0800e3b4                RCC_APB1PeriphClockLPModeCmd
                0x0800e408                RCC_APB2PeriphClockLPModeCmd
                0x0800e45c                RCC_ITConfig
                0x0800e4bc                RCC_GetFlagStatus
                0x0800e54c                RCC_ClearFlag
                0x0800e570                RCC_GetITStatus
                0x0800e5b0                RCC_ClearITPendingBit
                0x0800e5d0                RNG_DeInit
                0x0800e5f0                RNG_Cmd
                0x0800e63c                RNG_GetRandomNumber
                0x0800e654                RNG_ITConfig
                0x0800e6a0                RNG_GetFlagStatus
                0x0800e6e0                RNG_ClearFlag
                0x0800e708                RNG_GetITStatus
                0x0800e748                RNG_ClearITPendingBit
                0x0800e770                RTC_DeInit
                0x0800e8dc                RTC_Init
                0x0800e99c                RTC_StructInit
                0x0800e9c8                RTC_WriteProtectionCmd
                0x0800ea10                RTC_EnterInitMode
                0x0800eaa4                RTC_ExitInitMode
                0x0800eac8                RTC_WaitForSynchro
                0x0800eb78                RTC_RefClockCmd
                0x0800ec14                RTC_BypassShadowCmd
                0x0800ec8c                RTC_SetTime
                0x0800edd0                RTC_TimeStructInit
                0x0800ee04                RTC_GetTime
                0x0800eeac                RTC_GetSubSecond
                0x0800eedc                RTC_SetDate
                0x0800f01c                RTC_DateStructInit
                0x0800f050                RTC_GetDate
                0x0800f0f8                RTC_SetAlarm
                0x0800f274                RTC_AlarmStructInit
                0x0800f2c0                RTC_GetAlarm
                0x0800f3ac                RTC_AlarmCmd
                0x0800f494                RTC_AlarmSubSecondConfig
                0x0800f504                RTC_GetAlarmSubSecond
                0x0800f554                RTC_WakeUpClockConfig
                0x0800f5c0                RTC_SetWakeUpCounter
                0x0800f608                RTC_GetWakeUpCounter
                0x0800f628                RTC_WakeUpCmd
                0x0800f700                RTC_DayLightSavingConfig
                0x0800f774                RTC_GetStoreOperation
                0x0800f790                RTC_OutputConfig
                0x0800f804                RTC_CoarseCalibConfig
                0x0800f878                RTC_CoarseCalibCmd
                0x0800f914                RTC_CalibOutputCmd
                0x0800f98c                RTC_CalibOutputConfig
                0x0800f9f8                RTC_SmoothCalibConfig
                0x0800fab4                RTC_TimeStampCmd
                0x0800fb38                RTC_GetTimeStamp
                0x0800fc68                RTC_GetTimeStampSubSecond
                0x0800fc80                RTC_TamperTriggerConfig
                0x0800fcd8                RTC_TamperCmd
                0x0800fd2c                RTC_TamperFilterConfig
                0x0800fd70                RTC_TamperSamplingFreqConfig
                0x0800fdb4                RTC_TamperPinsPrechargeDuration
                0x0800fdf8                RTC_TimeStampOnTamperDetectionCmd
                0x0800fe44                RTC_TamperPullUpCmd
                0x0800fe90                RTC_WriteBackupRegister
                0x0800fec8                RTC_ReadBackupRegister
                0x0800fefc                RTC_TamperPinSelection
                0x0800ff40                RTC_TimeStampPinSelection
                0x0800ff84                RTC_OutputTypeConfig
                0x0800ffc8                RTC_SynchroShiftConfig
                0x080100a8                RTC_ITConfig
                0x08010168                RTC_GetFlagStatus
                0x080101b4                RTC_ClearFlag
                0x080101f4                RTC_GetITStatus
                0x08010280                RTC_ClearITPendingBit
                0x08010350                SDIO_DeInit
                0x08010370                SDIO_Init
                0x080103d8                SDIO_StructInit
                0x0801041c                SDIO_ClockCmd
                0x0801043c                SDIO_SetPowerState
                0x0801045c                SDIO_GetPowerState
                0x08010478                SDIO_SendCommand
                0x080104e0                SDIO_CmdStructInit
                0x0801051c                SDIO_GetCommandResponse
                0x08010534                SDIO_GetResponse
                0x08010560                SDIO_DataConfig
                0x080105d0                SDIO_DataStructInit
                0x08010614                SDIO_GetDataCounter
                0x0801062c                SDIO_ReadData
                0x08010644                SDIO_WriteData
                0x08010664                SDIO_GetFIFOCount
                0x0801067c                SDIO_StartSDIOReadWait
                0x0801069c                SDIO_StopSDIOReadWait
                0x080106bc                SDIO_SetSDIOReadWaitMode
                0x080106dc                SDIO_SetSDIOOperation
                0x080106fc                SDIO_SendSDIOSuspendCmd
                0x0801071c                SDIO_CommandCompletionCmd
                0x0801073c                SDIO_CEATAITCmd
                0x0801076c                SDIO_SendCEATACmd
                0x0801078c                SDIO_DMACmd
                0x080107ac                SDIO_ITConfig
                0x08010800                SDIO_GetFlagStatus
                0x0801083c                SDIO_ClearFlag
                0x0801085c                SDIO_GetITStatus
                0x08010898                SDIO_ClearITPendingBit
                0x080108b8                SPI_I2S_DeInit
                0x08010940                SPI_Init
                0x080109c8                I2S_Init
                0x08010bdc                SPI_StructInit
                0x08010c38                I2S_StructInit
                0x08010c7c                SPI_Cmd
                0x08010cbc                I2S_Cmd
                0x08010cfc                SPI_DataSizeConfig
                0x08010d34                SPI_BiDirectionalLineConfig
                0x08010d74                SPI_NSSInternalSoftwareConfig
                0x08010db8                SPI_SSOutputCmd
                0x08010df8                SPI_TIModeCmd
                0x08010e38                I2S_FullDuplexConfig
                0x08010edc                SPI_I2S_ReceiveData
                0x08010ef8                SPI_I2S_SendData
                0x08010f14                SPI_CalculateCRC
                0x08010f54                SPI_TransmitCRC
                0x08010f78                SPI_GetCRC
                0x08010fac                SPI_GetCRCPolynomial
                0x08010fc8                SPI_I2S_DMACmd
                0x08011010                SPI_I2S_ITConfig
                0x0801107c                SPI_I2S_GetFlagStatus
                0x080110bc                SPI_I2S_ClearFlag
                0x080110e0                SPI_I2S_GetITStatus
                0x08011168                SPI_I2S_ClearITPendingBit
                0x080111a0                SYSCFG_DeInit
                0x080111c0                SYSCFG_MemoryRemapConfig
                0x080111e0                SYSCFG_EXTILineConfig
                0x08011290                SYSCFG_ETH_MediaInterfaceConfig
                0x080112b0                SYSCFG_CompensationCellCmd
                0x080112d0                SYSCFG_GetCompensationCellStatus
                0x0801130c                TIM_DeInit
                0x08011544                TIM_TimeBaseInit
                0x08011638                TIM_TimeBaseStructInit
                0x08011674                TIM_PrescalerConfig
                0x0801169c                TIM_CounterModeConfig
                0x080116d4                TIM_SetCounter
                0x080116f0                TIM_SetAutoreload
                0x0801170c                TIM_GetCounter
                0x08011724                TIM_GetPrescaler
                0x08011740                TIM_UpdateDisableConfig
                0x08011780                TIM_UpdateRequestConfig
                0x080117c0                TIM_ARRPreloadConfig
                0x08011800                TIM_SelectOnePulseMode
                0x08011838                TIM_SetClockDivision
                0x08011870                TIM_Cmd
                0x080118b0                TIM_OC1Init
                0x080119ac                TIM_OC2Init
                0x08011ad4                TIM_OC3Init
                0x08011bf4                TIM_OC4Init
                0x08011cd4                TIM_OCStructInit
                0x08011d28                TIM_SelectOCxM
                0x08011de8                TIM_SetCompare1
                0x08011e04                TIM_SetCompare2
                0x08011e20                TIM_SetCompare3
                0x08011e3c                TIM_SetCompare4
                0x08011e58                TIM_ForcedOC1Config
                0x08011e90                TIM_ForcedOC2Config
                0x08011ed0                TIM_ForcedOC3Config
                0x08011f08                TIM_ForcedOC4Config
                0x08011f48                TIM_OC1PreloadConfig
                0x08011f80                TIM_OC2PreloadConfig
                0x08011fc0                TIM_OC3PreloadConfig
                0x08011ff8                TIM_OC4PreloadConfig
                0x08012038                TIM_OC1FastConfig
                0x08012070                TIM_OC2FastConfig
                0x080120b0                TIM_OC3FastConfig
                0x080120e8                TIM_OC4FastConfig
                0x08012128                TIM_ClearOC1Ref
                0x08012160                TIM_ClearOC2Ref
                0x080121a4                TIM_ClearOC3Ref
                0x080121dc                TIM_ClearOC4Ref
                0x08012220                TIM_OC1PolarityConfig
                0x08012258                TIM_OC1NPolarityConfig
                0x08012290                TIM_OC2PolarityConfig
                0x080122d0                TIM_OC2NPolarityConfig
                0x08012310                TIM_OC3PolarityConfig
                0x08012350                TIM_OC3NPolarityConfig
                0x08012390                TIM_OC4PolarityConfig
                0x080123d0                TIM_CCxCmd
                0x0801242c                TIM_CCxNCmd
                0x08012488                TIM_ICInit
                0x08012530                TIM_ICStructInit
                0x0801256c                TIM_PWMIConfig
                0x08012630                TIM_GetCapture1
                0x08012648                TIM_GetCapture2
                0x08012660                TIM_GetCapture3
                0x08012678                TIM_GetCapture4
                0x08012690                TIM_SetIC1Prescaler
                0x080126c8                TIM_SetIC2Prescaler
                0x08012704                TIM_SetIC3Prescaler
                0x0801273c                TIM_SetIC4Prescaler
                0x08012778                TIM_BDTRConfig
                0x080127c8                TIM_BDTRStructInit
                0x08012814                TIM_CtrlPWMOutputs
                0x08012864                TIM_SelectCOM
                0x080128a4                TIM_CCPreloadControl
                0x080128e4                TIM_ITConfig
                0x0801292c                TIM_GenerateEvent
                0x08012948                TIM_GetFlagStatus
                0x08012988                TIM_ClearFlag
                0x080129ac                TIM_GetITStatus
                0x08012a0c                TIM_ClearITPendingBit
                0x08012a30                TIM_DMAConfig
                0x08012a58                TIM_DMACmd
                0x08012aa0                TIM_SelectCCDMA
                0x08012ae0                TIM_InternalClockConfig
                0x08012b04                TIM_ITRxExternalClockConfig
                0x08012b34                TIM_TIxExternalClockConfig
                0x08012b8c                TIM_ETRClockMode1Config
                0x08012be0                TIM_ETRClockMode2Config
                0x08012c14                TIM_SelectInputTrigger
                0x08012c4c                TIM_SelectOutputTrigger
                0x08012c84                TIM_SelectSlaveMode
                0x08012cbc                TIM_SelectMasterSlaveMode
                0x08012cf4                TIM_ETRConfig
                0x08012d40                TIM_EncoderInterfaceConfig
                0x08012dd4                TIM_SelectHallSensor
                0x08012e14                TIM_RemapConfig
                0x08013080                USART_DeInit
                0x08013180                USART_Init
                0x0801332c                USART_StructInit
                0x08013370                USART_ClockInit
                0x080133c4                USART_ClockStructInit
                0x080133f8                USART_Cmd
                0x08013438                USART_SetPrescaler
                0x08013470                USART_OverSampling8Cmd
                0x080134b8                USART_OneBitMethodCmd
                0x080134f8                USART_SendData
                0x08013520                USART_ReceiveData
                0x08013544                USART_SetAddress
                0x0801357c                USART_ReceiverWakeUpCmd
                0x080135bc                USART_WakeUpConfig
                0x080135f4                USART_LINBreakDetectLengthConfig
                0x0801362c                USART_LINCmd
                0x0801366c                USART_SendBreak
                0x08013690                USART_HalfDuplexCmd
                0x080136d0                USART_SetGuardTime
                0x0801370c                USART_SmartCardCmd
                0x0801374c                USART_SmartCardNACKCmd
                0x0801378c                USART_IrDAConfig
                0x080137c4                USART_IrDACmd
                0x08013804                USART_DMACmd
                0x0801384c                USART_ITConfig
                0x080138f0                USART_GetFlagStatus
                0x08013930                USART_ClearFlag
                0x08013954                USART_GetITStatus
                0x08013a18                USART_ClearITPendingBit
                0x08013a5c                WWDG_DeInit
                0x08013a7c                WWDG_SetPrescaler
                0x08013ab8                WWDG_SetWindowValue
                0x08013afc                WWDG_EnableIT
                0x08013b14                WWDG_SetCounter
                0x08013b38                WWDG_Enable
                0x08013b60                WWDG_GetFlagStatus
                0x08013b98                WWDG_ClearFlag
                0x08013bdc                ETH_DeInit
                0x08013bfc                ETH_StructInit
                0x08013da4                ETH_Init
                0x08014280                ETH_Start
                0x080142ac                ETH_MACTransmissionCmd
                0x080142f8                ETH_MACReceptionCmd
                0x08014344                ETH_GetFlowControlBusyStatus
                0x08014380                ETH_InitiatePauseControlFrame
                0x080143a4                ETH_BackPressureActivationCmd
                0x080143f0                ETH_GetMACFlagStatus
                0x0801442c                ETH_GetMACITStatus
                0x08014468                ETH_MACITConfig
                0x080144bc                ETH_MACAddressConfig
                0x08014538                ETH_GetMACAddress
                0x080145c0                ETH_MACAddressPerfectFilterCmd
                0x08014624                ETH_MACAddressFilterConfig
                0x08014684                ETH_MACAddressMaskBytesFilterConfig
                0x080146dc                ETH_Get_Received_Frame
                0x0801478c                ETH_Get_Received_Frame_interrupt
                0x08014974                ETH_Prepare_Transmit_Descriptors
                0x08014b68                ETH_DMARxDescChainInit
                0x08014c28                ETH_CheckFrameReceived
                0x08014d74                ETH_DMATxDescChainInit
                0x08014e18                ETH_GetDMATxDescFlagStatus
                0x08014e50                ETH_GetDMATxDescCollisionCount
                0x08014e70                ETH_SetDMATxDescOwnBit
                0x08014e90                ETH_DMATxDescTransmitITConfig
                0x08014ec8                ETH_DMATxDescFrameSegmentConfig
                0x08014ee8                ETH_DMATxDescChecksumInsertionConfig
                0x08014f08                ETH_DMATxDescCRCCmd
                0x08014f40                ETH_DMATxDescSecondAddressChainedCmd
                0x08014f78                ETH_DMATxDescShortFramePaddingCmd
                0x08014fb0                ETH_DMATxDescBufferSizeConfig
                0x08014fdc                ETH_GetDMARxDescFlagStatus
                0x08015014                ETH_GetDMAPTPRxDescExtendedFlagStatus
                0x0801504c                ETH_SetDMARxDescOwnBit
                0x0801506c                ETH_GetDMARxDescFrameLength
                0x08015094                ETH_DMARxDescReceiveITConfig
                0x080150cc                ETH_GetDMARxDescBufferSize
                0x08015108                ETH_GetRxPktSize
                0x0801514c                ETH_EnhancedDescriptorCmd
                0x080151a8                ETH_SoftwareReset
                0x080151d4                ETH_GetSoftwareResetStatus
                0x08015214                ETH_GetDMAFlagStatus
                0x08015258                ETH_DMAClearFlag
                0x08015280                ETH_DMAITConfig
                0x080152f4                ETH_GetDMAITStatus
                0x08015338                ETH_DMAClearITPendingBit
                0x08015360                ETH_GetTransmitProcessState
                0x08015384                ETH_GetReceiveProcessState
                0x080153a8                ETH_FlushTransmitFIFO
                0x080153dc                ETH_GetFlushTransmitFIFOStatus
                0x08015420                ETH_DMATransmissionCmd
                0x0801548c                ETH_DMAReceptionCmd
                0x080154f8                ETH_GetDMAOverflowStatus
                0x08015538                ETH_GetRxOverflowMissedFrameCounter
                0x08015560                ETH_GetBufferUnavailableMissedFrameCounter
                0x08015584                ETH_GetCurrentTxDescStartAddress
                0x080155a4                ETH_GetCurrentRxDescStartAddress
                0x080155c4                ETH_GetCurrentTxBufferAddress
                0x080155e4                ETH_GetCurrentRxBufferAddress
                0x08015604                ETH_ResumeDMATransmission
                0x08015624                ETH_ResumeDMAReception
                0x08015644                ETH_SetReceiveWatchdogTimer
                0x0801566c                ETH_ReadPHYRegister
                0x08015734                ETH_WritePHYRegister
                0x08015804                ETH_PHYLoopBackCmd
                0x0801586c                ETH_ResetWakeUpFrameFilterRegisterPointer
                0x08015890                ETH_SetWakeUpFrameFilterRegister
                0x080158d4                ETH_GlobalUnicastWakeUpCmd
                0x08015920                ETH_GetPMTFlagStatus
                0x0801595c                ETH_WakeUpFrameDetectionCmd
                0x080159a8                ETH_MagicPacketDetectionCmd
                0x080159f4                ETH_PowerDownCmd
                0x08015a40                ETH_MMCCounterFullPreset
                0x08015a68                ETH_MMCCounterHalfPreset
                0x08015aac                ETH_MMCCounterFreezeCmd
                0x08015b00                ETH_MMCResetOnReadCmd
                0x08015b54                ETH_MMCCounterRolloverCmd
                0x08015ba8                ETH_MMCCountersReset
                0x08015bd0                ETH_MMCITConfig
                0x08015c84                ETH_GetMMCITStatus
                0x08015d18                ETH_GetMMCRegister
 .text          0x08015d4c     0x2fcc FreeRTOS-built-in.o
                0x08015d4c                xCoRoutineCreate
                0x08015e3c                vCoRoutineAddToDelayedList
                0x080160f4                vCoRoutineSchedule
                0x08016268                xCoRoutineRemoveFromEventList
                0x080162c8                xEventGroupCreate
                0x08016300                xEventGroupSync
                0x080163ec                xEventGroupWaitBits
                0x08016504                xEventGroupClearBits
                0x0801653c                xEventGroupClearBitsFromISR
                0x08016578                xEventGroupSetBits
                0x08016664                vEventGroupDelete
                0x080166a8                vEventGroupSetBitsCallback
                0x08016710                uxEventGroupGetNumber
                0x08016740                vListInitialise
                0x08016780                vListInitialiseItem
                0x0801679c                vListInsertEnd
                0x080167e4                vListInsert
                0x08016858                uxListRemove
                0x080168b0                xQueueGenericReset
                0x08016964                xQueueGenericCreate
                0x080169e8                xQueueCreateMutex
                0x08016a88                xQueueCreateCountingSemaphore
                0x08016abc                xQueueGenericSend
                0x08016be8                xQueueGenericSendFromISR
                0x08016c7c                xQueueGenericReceive
                0x08016e08                xQueueReceiveFromISR
                0x08016e9c                xQueuePeekFromISR
                0x08016eec                uxQueueMessagesWaiting
                0x08016f10                uxQueueSpacesAvailable
                0x08016f3c                uxQueueMessagesWaitingFromISR
                0x08016f58                vQueueDelete
                0x08016f84                uxQueueGetQueueNumber
                0x08016f9c                vQueueSetQueueNumber
                0x08016fb8                ucQueueGetQueueType
                0x080171d4                xQueueIsQueueEmptyFromISR
                0x08017238                xQueueIsQueueFullFromISR
                0x08017268                xTaskGenericCreate
                0x08017400                vTaskDelete
                0x080174bc                vTaskDelay
                0x08017518                uxTaskPriorityGet
                0x08017550                vTaskPrioritySet
                0x080176a8                vTaskStartScheduler
                0x08017718                vTaskEndScheduler
                0x08017734                vTaskSuspendAll
                0x08017758                xTaskResumeAll
                0x080178b8                xTaskGetTickCount
                0x080178e0                xTaskGetTickCountFromISR
                0x0801790c                uxTaskGetNumberOfTasks
                0x08017924                uxTaskGetSystemState
                0x08017a28                xTaskIncrementTick
                0x08017c10                vTaskSwitchContext
                0x08017ce0                vTaskPlaceOnEventList
                0x08017d34                vTaskPlaceOnUnorderedEventList
                0x08017d9c                xTaskRemoveFromEventList
                0x08017e6c                xTaskRemoveFromUnorderedEventList
                0x08017f1c                vTaskSetTimeOutState
                0x08017f4c                xTaskCheckForTimeOut
                0x08017fd0                vTaskMissedYield
                0x08017fe8                uxTaskGetTaskNumber
                0x08018018                vTaskSetTaskNumber
                0x08018508                xTaskGetCurrentTaskHandle
                0x08018528                vTaskPriorityInherit
                0x08018618                vTaskPriorityDisinherit
                0x080186b0                uxTaskResetEventItemValue
                0x080186f0                pxPortInitialiseStack
                0x08018760                SVC_Handler
                0x08018790                xPortStartScheduler
                0x080187e8                vPortEndScheduler
                0x080187f4                vPortYield
                0x08018814                vPortEnterCritical
                0x08018840                vPortExitCritical
                0x08018874                ulPortSetInterruptMask
                0x08018888                vPortClearInterruptMask
                0x08018890                PendSV_Handler
                0x080188cc                SysTick_Handler
                0x080188f8                vPortSetupTimerInterrupt
                0x08018928                pvPortMalloc
                0x08018ab0                vPortFree
                0x08018b40                xPortGetFreeHeapSize
                0x08018b58                xPortGetMinimumEverFreeHeapSize
                0x08018b70                vPortInitialiseBlocks
 .text          0x08018d18    0x10fa0 Lwip-built-in.o
                0x08018d18                netconn_new_with_proto_and_callback
                0x08018e30                netconn_delete
                0x08018e74                netconn_getaddr
                0x08018f64                netconn_bind
                0x08018ff4                netconn_connect
                0x08019084                netconn_disconnect
                0x08019108                netconn_listen_with_backlog
                0x08019194                netconn_accept
                0x08019484                netconn_recv_tcp_pbuf
                0x080194d8                netconn_recv
                0x08019644                netconn_recved
                0x0801968c                netconn_sendto
                0x080196d8                netconn_send
                0x08019760                netconn_write
                0x080198bc                netconn_close
                0x080198dc                netconn_shutdown
                0x0801a174                do_newconn
                0x0801a19c                netconn_alloc
                0x0801a2bc                netconn_free
                0x0801a744                do_delconn
                0x0801a8f0                do_bind
                0x0801aadc                do_connect
                0x0801ac44                do_disconnect
                0x0801ac80                do_listen
                0x0801ad94                do_send
                0x0801ae9c                do_recv
                0x0801b270                do_write
                0x0801b3f8                do_getaddr
                0x0801b508                do_close
                0x0801b610                lwip_strerr
                0x0801b63c                netbuf_new
                0x0801b684                netbuf_delete
                0x0801b6c8                netbuf_alloc
                0x0801b77c                netbuf_free
                0x0801b7d8                netbuf_ref
                0x0801b880                netbuf_chain
                0x0801b904                netbuf_data
                0x0801b9c8                netbuf_next
                0x0801ba38                netbuf_first
                0x0801ba78                lwip_socket_init
                0x0801bd3c                lwip_accept
                0x0801c060                lwip_bind
                0x0801c1cc                lwip_close
                0x0801c260                lwip_connect
                0x0801c3f8                lwip_listen
                0x0801c4b0                lwip_recvfrom
                0x0801c9f0                lwip_read
                0x0801ca24                lwip_recv
                0x0801ca58                lwip_send
                0x0801cb8c                lwip_sendto
                0x0801cd6c                lwip_socket
                0x0801cee0                lwip_write
                0x0801d188                lwip_select
                0x0801d8d4                lwip_shutdown
                0x0801dad0                lwip_getpeername
                0x0801daf8                lwip_getsockname
                0x0801db20                lwip_getsockopt
                0x0801e074                lwip_setsockopt
                0x0801e528                lwip_ioctl
                0x0801e5e4                lwip_fcntl
                0x0801e7e8                tcpip_input
                0x0801e864                tcpip_callback_with_block
                0x0801e8fc                tcpip_timeout
                0x0801e96c                tcpip_untimeout
                0x0801e9d4                tcpip_apimsg
                0x0801ea38                tcpip_apimsg_lock
                0x0801ea80                tcpip_init
                0x0801eb54                pbuf_free_callback
                0x0801eb7c                mem_free_callback
                0x0801eba4                lwip_htons
                0x0801ebd4                lwip_ntohs
                0x0801ebf4                lwip_htonl
                0x0801ec30                lwip_ntohl
                0x0801ec58                lwip_init
                0x0801ee20                mem_init
                0x0801eefc                mem_free
                0x0801f024                mem_trim
                0x0801f278                mem_malloc
                0x0801f510                mem_calloc
                0x0801f558                memp_init
                0x0801f614                memp_malloc
                0x0801f6b4                memp_free
                0x0801f730                netif_init
                0x0801f73c                netif_add
                0x0801f804                netif_set_addr
                0x0801f834                netif_remove
                0x0801f8d4                netif_find
                0x0801f950                netif_set_ipaddr
                0x0801fa04                netif_set_gw
                0x0801fa2c                netif_set_netmask
                0x0801fa54                netif_set_default
                0x0801fa74                netif_set_up
                0x0801fadc                netif_set_down
                0x0801fb10                netif_set_link_up
                0x0801fb6c                netif_set_link_down
                0x0801fba0                pbuf_alloc
                0x0801ff60                pbuf_realloc
                0x080200f4                pbuf_header
                0x0802024c                pbuf_free
                0x08020380                pbuf_clen
                0x080203b4                pbuf_ref
                0x080203e4                pbuf_cat
                0x080204b4                pbuf_chain
                0x080204d4                pbuf_dechain
                0x08020594                pbuf_copy
                0x08020780                pbuf_copy_partial
                0x08020894                pbuf_take
                0x080209d0                pbuf_coalesce
                0x08020a4c                pbuf_get_at
                0x08020ab0                pbuf_memcmp
                0x08020b58                pbuf_memfind
                0x08020bc0                pbuf_strstr
                0x08020c20                raw_input
                0x08020cfc                raw_bind
                0x08020d2c                raw_connect
                0x08020d5c                raw_recv
                0x08020d80                raw_sendto
                0x08020e84                raw_send
                0x08020eac                raw_remove
                0x08020f24                raw_new
                0x08020f80                sys_msleep
                0x08020fc8                tcp_tmr
                0x08021300                tcp_close
                0x08021338                tcp_shutdown
                0x080213c4                tcp_abandon
                0x080214bc                tcp_abort
                0x080214d8                tcp_bind
                0x08021604                tcp_listen_with_backlog
                0x080217a0                tcp_update_rcv_ann_wnd
                0x08021850                tcp_recved
                0x08021988                tcp_connect
                0x08021ba0                tcp_slowtmr
                0x08022150                tcp_fasttmr
                0x08022228                tcp_segs_free
                0x08022250                tcp_seg_free
                0x08022284                tcp_setprio
                0x080222a0                tcp_recv_null
                0x080223e8                tcp_alloc
                0x08022518                tcp_new
                0x0802252c                tcp_arg
                0x08022548                tcp_recv
                0x08022564                tcp_sent
                0x08022580                tcp_err
                0x0802259c                tcp_accept
                0x080225b8                tcp_poll
                0x080225e0                tcp_pcb_purge
                0x0802270c                tcp_pcb_remove
                0x08022830                tcp_next_iss
                0x08022868                tcp_eff_send_mss
                0x080228ac                tcp_debug_state_str
                0x080228d0                tcp_input
                0x08024ccc                tcp_send_fin
                0x08025050                tcp_write
                0x080256b8                tcp_enqueue_flags
                0x08025944                tcp_send_empty_ack
                0x080259ec                tcp_output
                0x08025eb4                tcp_rst
                0x08025fcc                tcp_rexmit_rto
                0x08026038                tcp_rexmit
                0x080260c8                tcp_rexmit_fast
                0x08026180                tcp_keepalive
                0x08026208                tcp_zero_window_probe
                0x0802639c                tcp_timer_needed
                0x08026418                sys_timeouts_init
                0x08026434                sys_timeout
                0x08026570                sys_untimeout
                0x08026610                sys_timeouts_mbox_fetch
                0x08026714                udp_input
                0x08026a10                udp_send
                0x08026a38                udp_sendto
                0x08026a78                udp_sendto_if
                0x08026c20                udp_bind
                0x08026d64                udp_connect
                0x08026e14                udp_disconnect
                0x08026e44                udp_recv
                0x08026e68                udp_remove
                0x08026ee0                udp_new
                0x08026f18                icmp_input
                0x08027244                icmp_dest_unreach
                0x08027440                inet_chksum_pseudo
                0x08027590                inet_chksum_pseudo_partial
                0x08027728                inet_chksum
                0x08027750                inet_chksum_pbuf
                0x0802780c                ip4_addr_isbroadcast
                0x08027894                ip4_addr_netmask_valid
                0x080278f8                ipaddr_addr
                0x08027924                ipaddr_aton
                0x08027bbc                ipaddr_ntoa
                0x08027be4                ipaddr_ntoa_r
                0x08027d48                ip_route
                0x08027dd0                ip_input
                0x08028068                ip_output_if
                0x08028280                ip_output
                0x080282f4                sys_mbox_new
                0x08028338                sys_mbox_free
                0x08028360                sys_mbox_post
                0x08028390                sys_mbox_trypost
                0x080283d4                sys_arch_mbox_fetch
                0x0802847c                sys_arch_mbox_tryfetch
                0x080284c8                sys_sem_new
                0x08028548                sys_arch_sem_wait
                0x080285dc                sys_mutex_new
                0x08028614                sys_mutex_lock
                0x08028644                sys_mutex_unlock
                0x0802866c                sys_mutex_free
                0x08028688                sys_sem_signal
                0x080286b0                sys_sem_free
                0x080286cc                sys_init
                0x080286d8                sys_now
                0x080286e8                sys_thread_new
                0x0802873c                sys_arch_protect
                0x0802874c                sys_arch_unprotect
                0x08028760                sys_assert
                0x080288ac                etharp_tmr
                0x08028e64                etharp_find_addr
                0x08029120                etharp_output
                0x0802929c                etharp_query
                0x080296f4                etharp_request
                0x08029744                ethernet_input
                0x08029c0c                ethernetif_init
 .text          0x08029cb8        0x0 /home/justin/Toolchain/gcc-arm-none-eabi-4_7-2013q3/bin/../lib/gcc/arm-none-eabi/4.7.4/../../../../arm-none-eabi/lib/armv7e-m/libc.a(lib_a-memcpy.o)
 .text          0x08029cb8        0x0 /home/justin/Toolchain/gcc-arm-none-eabi-4_7-2013q3/bin/../lib/gcc/arm-none-eabi/4.7.4/../../../../arm-none-eabi/lib/armv7e-m/libc.a(lib_a-memset.o)
 .text          0x08029cb8        0x0 /home/justin/Toolchain/gcc-arm-none-eabi-4_7-2013q3/bin/../lib/gcc/arm-none-eabi/4.7.4/../../../../arm-none-eabi/lib/armv7e-m/libc.a(lib_a-strcmp.o)
 .text          0x08029cb8        0x0 /home/justin/Toolchain/gcc-arm-none-eabi-4_7-2013q3/bin/../lib/gcc/arm-none-eabi/4.7.4/../../../../arm-none-eabi/lib/armv7e-m/libc.a(lib_a-strcpy.o)
 .text          0x08029cb8        0x0 /home/justin/Toolchain/gcc-arm-none-eabi-4_7-2013q3/bin/../lib/gcc/arm-none-eabi/4.7.4/../../../../arm-none-eabi/lib/armv7e-m/libc.a(lib_a-strlen.o)
 .text          0x08029cb8      0x370 /home/justin/Toolchain/gcc-arm-none-eabi-4_7-2013q3/bin/../lib/gcc/arm-none-eabi/4.7.4/armv7e-m/libgcc.a(_arm_addsubdf3.o)
                0x08029cb8                __aeabi_drsub
                0x08029cc0                __aeabi_dsub
                0x08029cc0                __subdf3
                0x08029cc4                __adddf3
                0x08029cc4                __aeabi_dadd
                0x08029f3c                __aeabi_ui2d
                0x08029f3c                __floatunsidf
                0x08029f5c                __floatsidf
                0x08029f5c                __aeabi_i2d
                0x08029f80                __extendsfdf2
                0x08029f80                __aeabi_f2d
                0x08029fbc                __aeabi_ul2d
                0x08029fbc                __floatundidf
                0x08029fcc                __floatdidf
                0x08029fcc                __aeabi_l2d
 .text          0x0802a028      0x424 /home/justin/Toolchain/gcc-arm-none-eabi-4_7-2013q3/bin/../lib/gcc/arm-none-eabi/4.7.4/armv7e-m/libgcc.a(_arm_muldivdf3.o)
                0x0802a028                __aeabi_dmul
                0x0802a028                __muldf3
                0x0802a27c                __aeabi_ddiv
                0x0802a27c                __divdf3
 .text          0x0802a44c       0x50 /home/justin/Toolchain/gcc-arm-none-eabi-4_7-2013q3/bin/../lib/gcc/arm-none-eabi/4.7.4/armv7e-m/libgcc.a(_arm_fixdfsi.o)
                0x0802a44c                __fixdfsi
                0x0802a44c                __aeabi_d2iz
 *(.text.*)
 .text.Reset_Handler
                0x0802a49c       0x4c Board-built-in.o
                0x0802a49c                Reset_Handler
 .text.Default_Handler
                0x0802a4e8        0x4 Board-built-in.o
                0x0802a4e8                RTC_Alarm_IRQHandler
                0x0802a4e8                HASH_RNG_IRQHandler
                0x0802a4e8                EXTI2_IRQHandler
                0x0802a4e8                TIM8_CC_IRQHandler
                0x0802a4e8                TIM1_CC_IRQHandler
                0x0802a4e8                DMA2_Stream5_IRQHandler
                0x0802a4e8                DMA1_Stream5_IRQHandler
                0x0802a4e8                PVD_IRQHandler
                0x0802a4e8                SDIO_IRQHandler
                0x0802a4e8                TAMP_STAMP_IRQHandler
                0x0802a4e8                CAN2_RX1_IRQHandler
                0x0802a4e8                EXTI3_IRQHandler
                0x0802a4e8                TIM8_TRG_COM_TIM14_IRQHandler
                0x0802a4e8                TIM1_UP_TIM10_IRQHandler
                0x0802a4e8                TIM8_UP_TIM13_IRQHandler
                0x0802a4e8                I2C3_ER_IRQHandler
                0x0802a4e8                EXTI0_IRQHandler
                0x0802a4e8                I2C2_EV_IRQHandler
                0x0802a4e8                DMA1_Stream2_IRQHandler
                0x0802a4e8                CAN1_RX0_IRQHandler
                0x0802a4e8                FPU_IRQHandler
                0x0802a4e8                OTG_HS_WKUP_IRQHandler
                0x0802a4e8                CAN2_SCE_IRQHandler
                0x0802a4e8                DMA2_Stream2_IRQHandler
                0x0802a4e8                SPI1_IRQHandler
                0x0802a4e8                TIM6_DAC_IRQHandler
                0x0802a4e8                TIM1_BRK_TIM9_IRQHandler
                0x0802a4e8                DCMI_IRQHandler
                0x0802a4e8                CAN2_RX0_IRQHandler
                0x0802a4e8                DMA2_Stream3_IRQHandler
                0x0802a4e8                USART6_IRQHandler
                0x0802a4e8                USART3_IRQHandler
                0x0802a4e8                CRYP_IRQHandler
                0x0802a4e8                CAN1_RX1_IRQHandler
                0x0802a4e8                UART5_IRQHandler
                0x0802a4e8                DMA2_Stream0_IRQHandler
                0x0802a4e8                TIM4_IRQHandler
                0x0802a4e8                I2C1_EV_IRQHandler
                0x0802a4e8                DMA1_Stream6_IRQHandler
                0x0802a4e8                DMA1_Stream1_IRQHandler
                0x0802a4e8                UART4_IRQHandler
                0x0802a4e8                TIM3_IRQHandler
                0x0802a4e8                RCC_IRQHandler
                0x0802a4e8                TIM8_BRK_TIM12_IRQHandler
                0x0802a4e8                Default_Handler
                0x0802a4e8                EXTI15_10_IRQHandler
                0x0802a4e8                ADC_IRQHandler
                0x0802a4e8                DMA1_Stream7_IRQHandler
                0x0802a4e8                TIM7_IRQHandler
                0x0802a4e8                CAN2_TX_IRQHandler
                0x0802a4e8                TIM5_IRQHandler
                0x0802a4e8                DMA2_Stream7_IRQHandler
                0x0802a4e8                I2C3_EV_IRQHandler
                0x0802a4e8                EXTI9_5_IRQHandler
                0x0802a4e8                RTC_WKUP_IRQHandler
                0x0802a4e8                ETH_WKUP_IRQHandler
                0x0802a4e8                SPI2_IRQHandler
                0x0802a4e8                OTG_HS_EP1_IN_IRQHandler
                0x0802a4e8                DMA1_Stream0_IRQHandler
                0x0802a4e8                CAN1_TX_IRQHandler
                0x0802a4e8                EXTI4_IRQHandler
                0x0802a4e8                FSMC_IRQHandler
                0x0802a4e8                OTG_HS_EP1_OUT_IRQHandler
                0x0802a4e8                WWDG_IRQHandler
                0x0802a4e8                TIM2_IRQHandler
                0x0802a4e8                OTG_FS_WKUP_IRQHandler
                0x0802a4e8                TIM1_TRG_COM_TIM11_IRQHandler
                0x0802a4e8                OTG_HS_IRQHandler
                0x0802a4e8                EXTI1_IRQHandler
                0x0802a4e8                USART2_IRQHandler
                0x0802a4e8                I2C2_ER_IRQHandler
                0x0802a4e8                DMA2_Stream1_IRQHandler
                0x0802a4e8                CAN1_SCE_IRQHandler
                0x0802a4e8                FLASH_IRQHandler
                0x0802a4e8                DMA2_Stream4_IRQHandler
                0x0802a4e8                USART1_IRQHandler
                0x0802a4e8                OTG_FS_IRQHandler
                0x0802a4e8                SPI3_IRQHandler
                0x0802a4e8                DMA1_Stream4_IRQHandler
                0x0802a4e8                I2C1_ER_IRQHandler
                0x0802a4e8                DMA2_Stream6_IRQHandler
                0x0802a4e8                DMA1_Stream3_IRQHandler
 .text.memcpy   0x0802a4ec      0x144 /home/justin/Toolchain/gcc-arm-none-eabi-4_7-2013q3/bin/../lib/gcc/arm-none-eabi/4.7.4/../../../../arm-none-eabi/lib/armv7e-m/libc.a(lib_a-memcpy.o)
                0x0802a4ec                memcpy
 .text.memset   0x0802a630      0x12c /home/justin/Toolchain/gcc-arm-none-eabi-4_7-2013q3/bin/../lib/gcc/arm-none-eabi/4.7.4/../../../../arm-none-eabi/lib/armv7e-m/libc.a(lib_a-memset.o)
                0x0802a630                memset
 .text.strcmp   0x0802a75c       0x80 /home/justin/Toolchain/gcc-arm-none-eabi-4_7-2013q3/bin/../lib/gcc/arm-none-eabi/4.7.4/../../../../arm-none-eabi/lib/armv7e-m/libc.a(lib_a-strcmp.o)
                0x0802a75c                strcmp
 .text.strcmp_unaligned
                0x0802a7dc      0x15c /home/justin/Toolchain/gcc-arm-none-eabi-4_7-2013q3/bin/../lib/gcc/arm-none-eabi/4.7.4/../../../../arm-none-eabi/lib/armv7e-m/libc.a(lib_a-strcmp.o)
 .text.strcpy   0x0802a938       0xbc /home/justin/Toolchain/gcc-arm-none-eabi-4_7-2013q3/bin/../lib/gcc/arm-none-eabi/4.7.4/../../../../arm-none-eabi/lib/armv7e-m/libc.a(lib_a-strcpy.o)
                0x0802a938                strcpy
 .text.strlen   0x0802a9f4       0x60 /home/justin/Toolchain/gcc-arm-none-eabi-4_7-2013q3/bin/../lib/gcc/arm-none-eabi/4.7.4/../../../../arm-none-eabi/lib/armv7e-m/libc.a(lib_a-strlen.o)
                0x0802a9f4                strlen
 *(.stub .gnu.linkonce.t.*)
 *(.rodata .rodata.* .gnu.linkonce.r.*)
 .rodata        0x0802aa54      0x1ec App-built-in.o
 .rodata        0x0802ac40      0x87c OPRoS_M-built-in.o
                0x0802ad0c                stringCalssNameHeader
                0x0802ad1c                stringNull
 .rodata        0x0802b4bc       0x28 Board-built-in.o
 .rodata        0x0802b4e4       0x10 FreeRTOS-built-in.o
 .rodata        0x0802b4f4     0x32a4 Lwip-built-in.o
                0x0802d6e4                tcp_state_str
                0x0802d710                tcp_backoff
                0x0802d720                tcp_persist_backoff
                0x0802d728                tcp_pcb_lists
                0x0802e3f0                ip_addr_any
                0x0802e3f4                ip_addr_broadcast
                0x0802e4e4                ethbroadcast
                0x0802e4ec                ethzero
 *(.glue_7 .glue_7t)
 .glue_7        0x00000000        0x0 linker stubs
 .glue_7t       0x00000000        0x0 linker stubs
                0x0802e798                . = ALIGN (0x4)
                0x0802e798                _etext = .
                0x0802e798                _sidata = _etext

.vfp11_veneer   0x0802e798        0x0
 .vfp11_veneer  0x00000000        0x0 linker stubs

.v4_bx          0x0802e798        0x0
 .v4_bx         0x00000000        0x0 linker stubs

.iplt           0x0802e798        0x0
 .iplt          0x00000000        0x0 App-built-in.o

.rel.dyn        0x0802e798        0x0
 .rel.iplt      0x00000000        0x0 App-built-in.o

.data           0x20000000      0x114 load address 0x0802e798
                0x20000000                . = .
                0x20000000                . = ALIGN (0x4)
                0x20000000                _sdata = .
                0x20000000                . = ALIGN (0x80)
                0x00000000                _isr_vectorsram_offs = (. - 0x20000000)
 *(.isr_vectorsram)
                0x20000000                . = ALIGN (0x4)
 *(.ramfunc*)
                0x20000000                . = ALIGN (0x4)
 *(.data .data.* .gnu.linkonce.d.*)
 .data          0x20000000        0x4 App-built-in.o
                0x20000000                toggle
 .data          0x20000004       0x64 OPRoS_M-built-in.o
                0x20000004                system_datatype_set_index
                0x20000008                SYSTEM_DATATYPE_SET
                0x20000058                SERIALIZE_ID_SET
                0x20000060                SERIALIZE_SIZE_SET
 .data          0x20000068       0x24 Board-built-in.o
                0x20000068                SystemCoreClock
                0x2000006c                AHBPrescTable
 .data          0x2000008c       0x10 FreeRTOS-built-in.o
 .data          0x2000009c       0x78 Lwip-built-in.o
 .data          0x20000114        0x0 /home/justin/Toolchain/gcc-arm-none-eabi-4_7-2013q3/bin/../lib/gcc/arm-none-eabi/4.7.4/../../../../arm-none-eabi/lib/armv7e-m/libc.a(lib_a-memcpy.o)
 .data          0x20000114        0x0 /home/justin/Toolchain/gcc-arm-none-eabi-4_7-2013q3/bin/../lib/gcc/arm-none-eabi/4.7.4/../../../../arm-none-eabi/lib/armv7e-m/libc.a(lib_a-memset.o)
 .data          0x20000114        0x0 /home/justin/Toolchain/gcc-arm-none-eabi-4_7-2013q3/bin/../lib/gcc/arm-none-eabi/4.7.4/../../../../arm-none-eabi/lib/armv7e-m/libc.a(lib_a-strcmp.o)
 .data          0x20000114        0x0 /home/justin/Toolchain/gcc-arm-none-eabi-4_7-2013q3/bin/../lib/gcc/arm-none-eabi/4.7.4/../../../../arm-none-eabi/lib/armv7e-m/libc.a(lib_a-strcpy.o)
 .data          0x20000114        0x0 /home/justin/Toolchain/gcc-arm-none-eabi-4_7-2013q3/bin/../lib/gcc/arm-none-eabi/4.7.4/../../../../arm-none-eabi/lib/armv7e-m/libc.a(lib_a-strlen.o)
 .data          0x20000114        0x0 /home/justin/Toolchain/gcc-arm-none-eabi-4_7-2013q3/bin/../lib/gcc/arm-none-eabi/4.7.4/armv7e-m/libgcc.a(_arm_addsubdf3.o)
 .data          0x20000114        0x0 /home/justin/Toolchain/gcc-arm-none-eabi-4_7-2013q3/bin/../lib/gcc/arm-none-eabi/4.7.4/armv7e-m/libgcc.a(_arm_muldivdf3.o)
 .data          0x20000114        0x0 /home/justin/Toolchain/gcc-arm-none-eabi-4_7-2013q3/bin/../lib/gcc/arm-none-eabi/4.7.4/armv7e-m/libgcc.a(_arm_fixdfsi.o)
                0x20000114                . = ALIGN (0x4)
                0x20000114                _edata = .

.igot.plt       0x20000114        0x0 load address 0x0802e8ac
 .igot.plt      0x00000000        0x0 App-built-in.o

.bss            0x20000114    0x1cff0 load address 0x0802e8ac
                0x20000114                . = ALIGN (0x4)
                0x20000114                _sbss = .
 *(.bss .bss.*)
 .bss           0x20000114        0x8 App-built-in.o
                0x20000114                dataIn
                0x20000118                methodCnt
 .bss           0x2000011c       0x18 OPRoS_M-built-in.o
                0x2000011c                reqID_LOWIndex
                0x20000120                reqID_HIGHIndex
                0x20000124                currentSystemNodeConnectionIndex
                0x20000128                currentSystemComponentConnectionIndex
                0x2000012c                currentSystemPortConnectionIndex
                0x20000130                io_packet_container_index
 .bss           0x20000134        0x4 Board-built-in.o
                0x20000134                EthInitStatus
 .bss           0x20000138    0x119a0 FreeRTOS-built-in.o
                0x200001a4                pxCurrentCoRoutine
                0x200001b8                pxCurrentTCB
 .bss           0x20011ad8     0x3ca0 Lwip-built-in.o
                0x20015770                s_xSemaphore
 .bss           0x20015778        0x0 /home/justin/Toolchain/gcc-arm-none-eabi-4_7-2013q3/bin/../lib/gcc/arm-none-eabi/4.7.4/../../../../arm-none-eabi/lib/armv7e-m/libc.a(lib_a-memcpy.o)
 .bss           0x20015778        0x0 /home/justin/Toolchain/gcc-arm-none-eabi-4_7-2013q3/bin/../lib/gcc/arm-none-eabi/4.7.4/../../../../arm-none-eabi/lib/armv7e-m/libc.a(lib_a-memset.o)
 .bss           0x20015778        0x0 /home/justin/Toolchain/gcc-arm-none-eabi-4_7-2013q3/bin/../lib/gcc/arm-none-eabi/4.7.4/../../../../arm-none-eabi/lib/armv7e-m/libc.a(lib_a-strcmp.o)
 .bss           0x20015778        0x0 /home/justin/Toolchain/gcc-arm-none-eabi-4_7-2013q3/bin/../lib/gcc/arm-none-eabi/4.7.4/../../../../arm-none-eabi/lib/armv7e-m/libc.a(lib_a-strcpy.o)
 .bss           0x20015778        0x0 /home/justin/Toolchain/gcc-arm-none-eabi-4_7-2013q3/bin/../lib/gcc/arm-none-eabi/4.7.4/../../../../arm-none-eabi/lib/armv7e-m/libc.a(lib_a-strlen.o)
 .bss           0x20015778        0x0 /home/justin/Toolchain/gcc-arm-none-eabi-4_7-2013q3/bin/../lib/gcc/arm-none-eabi/4.7.4/armv7e-m/libgcc.a(_arm_addsubdf3.o)
 .bss           0x20015778        0x0 /home/justin/Toolchain/gcc-arm-none-eabi-4_7-2013q3/bin/../lib/gcc/arm-none-eabi/4.7.4/armv7e-m/libgcc.a(_arm_muldivdf3.o)
 .bss           0x20015778        0x0 /home/justin/Toolchain/gcc-arm-none-eabi-4_7-2013q3/bin/../lib/gcc/arm-none-eabi/4.7.4/armv7e-m/libgcc.a(_arm_fixdfsi.o)
 *(COMMON)
 COMMON         0x20015778      0x370 App-built-in.o
                0x20015778                intMethod
                0x200157ec                component
                0x20015a8c                xnetif
                0x20015abc                testService
 COMMON         0x20015ae8     0x10e8 OPRoS_M-built-in.o
                0x20015ae8                SYSTEM_CONNECTION_SET
                0x20015bb0                system_string
                0x20015bd4                SYSTEM_COMPONENT_CONNECTION_SET
                0x20015d3c                system_float
                0x20015d60                system_double
                0x20015d84                mutex_io_packet_container
                0x20015d88                system_short
                0x20015dac                SYSTEM_PORT_CONNECTION_SET
                0x20015e24                io_packet_container
                0x20016b38                sem_io_packet_container
                0x20016b3c                system_long
                0x20016b60                singleton_component
                0x20016b64                system_int
                0x20016b88                system_void
                0x20016bac                system_char
 COMMON         0x20016bd0     0x3ce4 Board-built-in.o
                0x20016bd0                RX_Frame_Descriptor
                0x20016bdc                DMARxDescToGet
                0x20016be0                DMATxDescToSet
                0x20016be4                DMATxDscrTab
                0x20016c84                Rx_Buff
                0x20018a48                Frame_Rx_index
                0x20018a4c                DMA_RX_FRAME_infos
                0x20018a50                DMARxDscrTab
                0x20018af0                Tx_Buff
 COMMON         0x2001a8b4     0x2850 Lwip-built-in.o
                0x2001a8b4                current_iphdr_src
                0x2001a8b8                netif_list
                0x2001a8bc                lock_tcpip_core
                0x2001a8c0                tcp_active_pcbs
                0x2001a8c4                udp_pcbs
                0x2001a8c8                current_netif
                0x2001a8cc                tcp_ticks
                0x2001a8d0                tcp_listen_pcbs
                0x2001a8d4                current_iphdr_dest
                0x2001a8d8                tcp_tmp_pcb
                0x2001a8dc                tcp_input_pcb
                0x2001a8e0                current_header
                0x2001a8e4                tcp_bound_pcbs
                0x2001a8e8                tcp_tw_pcbs
                0x2001a8ec                netif_default
                0x2001a8f0                ram_heap
                0x2001d104                . = ALIGN (0x4)
                0x2001d104                _ebss = .
                0x2001d104                PROVIDE (end, _ebss)
                0x2001d104                PROVIDE (_end, _ebss)

._usrstack      0x2001d104      0x100 load address 0x0804b89c
                0x2001d104                . = ALIGN (0x4)
                0x2001d104                _susrstack = .
                0x2001d204                . = (. + _Minimum_Stack_Size)
 *fill*         0x2001d104      0x100 00
                0x2001d204                . = ALIGN (0x4)
                0x2001d204                _eusrstack = .
                0x00000400                __Stack_Size = 0x400
                0x00000400                PROVIDE (_Stack_Size, __Stack_Size)
                0x2001fc00                __Stack_Init = (_estack - __Stack_Size)
                0x2001fc00                PROVIDE (_Stack_Init, __Stack_Init)
OUTPUT(.elf elf32-littlearm)

.comment        0x00000000       0x70
 .comment       0x00000000       0x70 App-built-in.o
                                0x1c4 (size before relaxing)
 .comment       0x00000000      0x46a OPRoS_M-built-in.o
 .comment       0x00000000      0xfe4 Board-built-in.o
 .comment       0x00000000      0x388 FreeRTOS-built-in.o
 .comment       0x00000000      0xf73 Lwip-built-in.o

.ARM.attributes
                0x00000000       0x31
 .ARM.attributes
                0x00000000       0x33 App-built-in.o
 .ARM.attributes
                0x00000033       0x33 OPRoS_M-built-in.o
 .ARM.attributes
                0x00000066       0x31 Board-built-in.o
 .ARM.attributes
                0x00000097       0x33 FreeRTOS-built-in.o
 .ARM.attributes
                0x000000ca       0x33 Lwip-built-in.o
 .ARM.attributes
                0x000000fd       0x2e /home/justin/Toolchain/gcc-arm-none-eabi-4_7-2013q3/bin/../lib/gcc/arm-none-eabi/4.7.4/../../../../arm-none-eabi/lib/armv7e-m/libc.a(lib_a-memcpy.o)
 .ARM.attributes
                0x0000012b       0x2e /home/justin/Toolchain/gcc-arm-none-eabi-4_7-2013q3/bin/../lib/gcc/arm-none-eabi/4.7.4/../../../../arm-none-eabi/lib/armv7e-m/libc.a(lib_a-memset.o)
 .ARM.attributes
                0x00000159       0x2e /home/justin/Toolchain/gcc-arm-none-eabi-4_7-2013q3/bin/../lib/gcc/arm-none-eabi/4.7.4/../../../../arm-none-eabi/lib/armv7e-m/libc.a(lib_a-strcmp.o)
 .ARM.attributes
                0x00000187       0x2e /home/justin/Toolchain/gcc-arm-none-eabi-4_7-2013q3/bin/../lib/gcc/arm-none-eabi/4.7.4/../../../../arm-none-eabi/lib/armv7e-m/libc.a(lib_a-strcpy.o)
 .ARM.attributes
                0x000001b5       0x2e /home/justin/Toolchain/gcc-arm-none-eabi-4_7-2013q3/bin/../lib/gcc/arm-none-eabi/4.7.4/../../../../arm-none-eabi/lib/armv7e-m/libc.a(lib_a-strlen.o)
 .ARM.attributes
                0x000001e3       0x1e /home/justin/Toolchain/gcc-arm-none-eabi-4_7-2013q3/bin/../lib/gcc/arm-none-eabi/4.7.4/armv7e-m/libgcc.a(_arm_addsubdf3.o)
 .ARM.attributes
                0x00000201       0x1e /home/justin/Toolchain/gcc-arm-none-eabi-4_7-2013q3/bin/../lib/gcc/arm-none-eabi/4.7.4/armv7e-m/libgcc.a(_arm_muldivdf3.o)
 .ARM.attributes
                0x0000021f       0x1e /home/justin/Toolchain/gcc-arm-none-eabi-4_7-2013q3/bin/../lib/gcc/arm-none-eabi/4.7.4/armv7e-m/libgcc.a(_arm_fixdfsi.o)

.debug_frame    0x00000000       0xcc
 .debug_frame   0x00000000       0x30 /home/justin/Toolchain/gcc-arm-none-eabi-4_7-2013q3/bin/../lib/gcc/arm-none-eabi/4.7.4/../../../../arm-none-eabi/lib/armv7e-m/libc.a(lib_a-memcpy.o)
 .debug_frame   0x00000030       0x2c /home/justin/Toolchain/gcc-arm-none-eabi-4_7-2013q3/bin/../lib/gcc/arm-none-eabi/4.7.4/../../../../arm-none-eabi/lib/armv7e-m/libc.a(lib_a-memset.o)
 .debug_frame   0x0000005c       0x30 /home/justin/Toolchain/gcc-arm-none-eabi-4_7-2013q3/bin/../lib/gcc/arm-none-eabi/4.7.4/../../../../arm-none-eabi/lib/armv7e-m/libc.a(lib_a-strcmp.o)
 .debug_frame   0x0000008c       0x20 /home/justin/Toolchain/gcc-arm-none-eabi-4_7-2013q3/bin/../lib/gcc/arm-none-eabi/4.7.4/../../../../arm-none-eabi/lib/armv7e-m/libc.a(lib_a-strcpy.o)
 .debug_frame   0x000000ac       0x20 /home/justin/Toolchain/gcc-arm-none-eabi-4_7-2013q3/bin/../lib/gcc/arm-none-eabi/4.7.4/../../../../arm-none-eabi/lib/armv7e-m/libc.a(lib_a-strlen.o)
